target datalayout = "e-m:e-p270:32:32-p271:32:32-p272:64:64-i64:64-i128:128-f80:128-n8:16:32:64-S128"
target triple = "x86_64-pc-linux-gnu"

; Function Attrs: mustprogress nounwind uwtable
define dso_local noundef zeroext i1 @_ZN4llvm9symbolize12MarkupFilter20tryContextualElementERKNS0_10MarkupNodeERKNS_11SmallVectorIS2_Lj1EEE(ptr noundef nonnull align 8 dereferenceable(464) %0, ptr noundef nonnull align 8 dereferenceable(96) %1, ptr noundef nonnull align 8 dereferenceable(112) %2) #0 align 2 {
  %4 = alloca i1, align 1
  %5 = alloca ptr, align 8
  %6 = alloca ptr, align 8
  %7 = alloca ptr, align 8
  store ptr %0, ptr %5, align 8
  store ptr %1, ptr %6, align 8
  store ptr %2, ptr %7, align 8
  %8 = load ptr, ptr %5, align 8
  %9 = load ptr, ptr %6, align 8
  %10 = load ptr, ptr %7, align 8
  %11 = call noundef zeroext i1 @_ZN4llvm9symbolize12MarkupFilter7tryMMapERKNS0_10MarkupNodeERKNS_11SmallVectorIS2_Lj1EEE(ptr noundef nonnull align 8 dereferenceable(464) %8, ptr noundef nonnull align 8 dereferenceable(96) %9, ptr noundef nonnull align 8 dereferenceable(112) %10)
  br i1 %11, label %12, label %13

12:                                               ; preds = %3
  store i1 true, ptr %4, align 1
  br label %22

13:                                               ; preds = %3
  %14 = load ptr, ptr %6, align 8
  %15 = load ptr, ptr %7, align 8
  %16 = call noundef zeroext i1 @_ZN4llvm9symbolize12MarkupFilter8tryResetERKNS0_10MarkupNodeERKNS_11SmallVectorIS2_Lj1EEE(ptr noundef nonnull align 8 dereferenceable(464) %8, ptr noundef nonnull align 8 dereferenceable(96) %14, ptr noundef nonnull align 8 dereferenceable(112) %15)
  br i1 %16, label %17, label %18

17:                                               ; preds = %13
  store i1 true, ptr %4, align 1
  br label %22

18:                                               ; preds = %13
  %19 = load ptr, ptr %6, align 8
  %20 = load ptr, ptr %7, align 8
  %21 = call noundef zeroext i1 @_ZN4llvm9symbolize12MarkupFilter9tryModuleERKNS0_10MarkupNodeERKNS_11SmallVectorIS2_Lj1EEE(ptr noundef nonnull align 8 dereferenceable(464) %8, ptr noundef nonnull align 8 dereferenceable(96) %19, ptr noundef nonnull align 8 dereferenceable(112) %20)
  store i1 %21, ptr %4, align 1
  br label %22

22:                                               ; preds = %18, %17, %12
  %23 = load i1, ptr %4, align 1
  ret i1 %23
}