; Function Attrs: mustprogress nounwind uwtable
define dso_local noundef zeroext i1 @_ZN4llvm9symbolize12MarkupFilter20tryContextualElementERKNS0_10MarkupNodeERKNS_11SmallVectorIS2_Lj1EEE(ptr noundef nonnull align 8 dereferenceable(464) %0, ptr noundef nonnull align 8 dereferenceable(96) %1, ptr noundef nonnull align 8 dereferenceable(112) %2) local_unnamed_addr #0 align 2 {
  %4 = tail call noundef zeroext i1 @_ZN4llvm9symbolize12MarkupFilter7tryMMapERKNS0_10MarkupNodeERKNS_11SmallVectorIS2_Lj1EEE(ptr noundef nonnull align 8 dereferenceable(464) %0, ptr noundef nonnull align 8 dereferenceable(96) %1, ptr noundef nonnull align 8 dereferenceable(112) %2)
  br i1 %4, label %9, label %5

5:                                                ; preds = %3
  %6 = tail call noundef zeroext i1 @_ZN4llvm9symbolize12MarkupFilter8tryResetERKNS0_10MarkupNodeERKNS_11SmallVectorIS2_Lj1EEE(ptr noundef nonnull align 8 dereferenceable(464) %0, ptr noundef nonnull align 8 dereferenceable(96) %1, ptr noundef nonnull align 8 dereferenceable(112) %2)
  br i1 %6, label %9, label %7

7:                                                ; preds = %5
  %8 = tail call noundef zeroext i1 @_ZN4llvm9symbolize12MarkupFilter9tryModuleERKNS0_10MarkupNodeERKNS_11SmallVectorIS2_Lj1EEE(ptr noundef nonnull align 8 dereferenceable(464) %0, ptr noundef nonnull align 8 dereferenceable(96) %1, ptr noundef nonnull align 8 dereferenceable(112) %2)
  br label %9

9:                                                ; preds = %5, %3, %7
  %.0 = phi i1 [ %8, %7 ], [ true, %3 ], [ true, %5 ]
  ret i1 %.0
}